target datalayout = "e-m:e-p270:32:32-p271:32:32-p272:64:64-i64:64-i128:128-f80:128-n8:16:32:64-S128"
target triple = "x86_64-pc-linux-gnu"

%struct.TextureDSPThreadContext = type { %union.anon.0, i64, i32, i32, %union.anon.1, i32, i32, i32, ptr }
%union.anon.0 = type { ptr }
%union.anon.1 = type { ptr }

; Function Attrs: nounwind uwtable
define internal i32 @exec_func(ptr noundef %0, ptr noundef %1, i32 noundef %2, i32 noundef %3) #1 {
  %5 = alloca ptr, align 8
  %6 = alloca ptr, align 8
  %7 = alloca i32, align 4
  %8 = alloca i32, align 4
  %9 = alloca ptr, align 8
  %10 = alloca ptr, align 8
  %11 = alloca i32, align 4
  %12 = alloca i32, align 4
  %13 = alloca i32, align 4
  %14 = alloca i32, align 4
  %15 = alloca i32, align 4
  %16 = alloca i32, align 4
  %17 = alloca i32, align 4
  %18 = alloca i32, align 4
  %19 = alloca ptr, align 8
  %20 = alloca i32, align 4
  store ptr %0, ptr %5, align 8, !tbaa !22
  store ptr %1, ptr %6, align 8, !tbaa !45
  store i32 %2, ptr %7, align 4, !tbaa !17
  store i32 %3, ptr %8, align 4, !tbaa !17
  call void @llvm.lifetime.start.p0(i64 8, ptr %9) #7
  %21 = load ptr, ptr %6, align 8, !tbaa !45
  store ptr %21, ptr %9, align 8, !tbaa !24
  call void @llvm.lifetime.start.p0(i64 8, ptr %10) #7
  %22 = load ptr, ptr %9, align 8, !tbaa !24
  %23 = getelementptr inbounds nuw %struct.TextureDSPThreadContext, ptr %22, i32 0, i32 4
  %24 = load ptr, ptr %23, align 8, !tbaa !46
  store ptr %24, ptr %10, align 8, !tbaa !13
  call void @llvm.lifetime.start.p0(i64 4, ptr %11) #7
  %25 = load ptr, ptr %9, align 8, !tbaa !24
  %26 = getelementptr inbounds nuw %struct.TextureDSPThreadContext, ptr %25, i32 0, i32 2
  %27 = load i32, ptr %26, align 8, !tbaa !47
  %28 = sdiv i32 %27, 4
  store i32 %28, ptr %11, align 4, !tbaa !17
  call void @llvm.lifetime.start.p0(i64 4, ptr %12) #7
  %29 = load ptr, ptr %9, align 8, !tbaa !24
  %30 = getelementptr inbounds nuw %struct.TextureDSPThreadContext, ptr %29, i32 0, i32 3
  %31 = load i32, ptr %30, align 4, !tbaa !48
  %32 = sdiv i32 %31, 4
  store i32 %32, ptr %12, align 4, !tbaa !17
  call void @llvm.lifetime.start.p0(i64 4, ptr %13) #7
  call void @llvm.lifetime.start.p0(i64 4, ptr %14) #7
  call void @llvm.lifetime.start.p0(i64 4, ptr %15) #7
  call void @llvm.lifetime.start.p0(i64 4, ptr %16) #7
  call void @llvm.lifetime.start.p0(i64 4, ptr %17) #7
  %33 = load i32, ptr %12, align 4, !tbaa !17
  %34 = load ptr, ptr %9, align 8, !tbaa !24
  %35 = getelementptr inbounds nuw %struct.TextureDSPThreadContext, ptr %34, i32 0, i32 7
  %36 = load i32, ptr %35, align 8, !tbaa !43
  %37 = sdiv i32 %33, %36
  store i32 %37, ptr %17, align 4, !tbaa !17
  call void @llvm.lifetime.start.p0(i64 4, ptr %18) #7
  %38 = load i32, ptr %12, align 4, !tbaa !17
  %39 = load ptr, ptr %9, align 8, !tbaa !24
  %40 = getelementptr inbounds nuw %struct.TextureDSPThreadContext, ptr %39, i32 0, i32 7
  %41 = load i32, ptr %40, align 8, !tbaa !43
  %42 = srem i32 %38, %41
  store i32 %42, ptr %18, align 4, !tbaa !17
  %43 = load i32, ptr %7, align 4, !tbaa !17
  %44 = load i32, ptr %17, align 4, !tbaa !17
  %45 = mul nsw i32 %43, %44
  store i32 %45, ptr %15, align 4, !tbaa !17
  %46 = load i32, ptr %7, align 4, !tbaa !17
  %47 = load i32, ptr %18, align 4, !tbaa !17
  %48 = icmp sgt i32 %46, %47
  br i1 %48, label %49, label %51

49:                                               ; preds = %4
  %50 = load i32, ptr %18, align 4, !tbaa !17
  br label %53

51:                                               ; preds = %4
  %52 = load i32, ptr %7, align 4, !tbaa !17
  br label %53

53:                                               ; preds = %51, %49
  %54 = phi i32 [ %50, %49 ], [ %52, %51 ]
  %55 = load i32, ptr %15, align 4, !tbaa !17
  %56 = add nsw i32 %55, %54
  store i32 %56, ptr %15, align 4, !tbaa !17
  %57 = load i32, ptr %15, align 4, !tbaa !17
  %58 = load i32, ptr %17, align 4, !tbaa !17
  %59 = add nsw i32 %57, %58
  store i32 %59, ptr %16, align 4, !tbaa !17
  %60 = load i32, ptr %7, align 4, !tbaa !17
  %61 = load i32, ptr %18, align 4, !tbaa !17
  %62 = icmp slt i32 %60, %61
  br i1 %62, label %63, label %66

63:                                               ; preds = %53
  %64 = load i32, ptr %16, align 4, !tbaa !17
  %65 = add nsw i32 %64, 1
  store i32 %65, ptr %16, align 4, !tbaa !17
  br label %66

66:                                               ; preds = %63, %53
  %67 = load i32, ptr %15, align 4, !tbaa !17
  store i32 %67, ptr %14, align 4, !tbaa !17
  br label %68

68:                                               ; preds = %121, %66
  %69 = load i32, ptr %14, align 4, !tbaa !17
  %70 = load i32, ptr %16, align 4, !tbaa !17
  %71 = icmp slt i32 %69, %70
  br i1 %71, label %72, label %124

72:                                               ; preds = %68
  call void @llvm.lifetime.start.p0(i64 8, ptr %19) #7
  %73 = load ptr, ptr %9, align 8, !tbaa !24
  %74 = getelementptr inbounds nuw %struct.TextureDSPThreadContext, ptr %73, i32 0, i32 0
  %75 = load ptr, ptr %74, align 8, !tbaa !46
  %76 = load i32, ptr %14, align 4, !tbaa !17
  %77 = sext i32 %76 to i64
  %78 = load ptr, ptr %9, align 8, !tbaa !24
  %79 = getelementptr inbounds nuw %struct.TextureDSPThreadContext, ptr %78, i32 0, i32 1
  %80 = load i64, ptr %79, align 8, !tbaa !49
  %81 = mul nsw i64 %77, %80
  %82 = mul nsw i64 %81, 4
  %83 = getelementptr inbounds i8, ptr %75, i64 %82
  store ptr %83, ptr %19, align 8, !tbaa !13
  call void @llvm.lifetime.start.p0(i64 4, ptr %20) #7
  %84 = load i32, ptr %14, align 4, !tbaa !17
  %85 = load i32, ptr %11, align 4, !tbaa !17
  %86 = mul nsw i32 %84, %85
  store i32 %86, ptr %20, align 4, !tbaa !17
  store i32 0, ptr %13, align 4, !tbaa !17
  br label %87

87:                                               ; preds = %117, %72
  %88 = load i32, ptr %13, align 4, !tbaa !17
  %89 = load i32, ptr %11, align 4, !tbaa !17
  %90 = icmp slt i32 %88, %89
  br i1 %90, label %91, label %120

91:                                               ; preds = %87
  %92 = load ptr, ptr %9, align 8, !tbaa !24
  %93 = getelementptr inbounds nuw %struct.TextureDSPThreadContext, ptr %92, i32 0, i32 8
  %94 = load ptr, ptr %93, align 8, !tbaa !50
  %95 = load ptr, ptr %10, align 8, !tbaa !13
  %96 = load i32, ptr %20, align 4, !tbaa !17
  %97 = load i32, ptr %13, align 4, !tbaa !17
  %98 = add nsw i32 %96, %97
  %99 = load ptr, ptr %9, align 8, !tbaa !24
  %100 = getelementptr inbounds nuw %struct.TextureDSPThreadContext, ptr %99, i32 0, i32 5
  %101 = load i32, ptr %100, align 8, !tbaa !51
  %102 = mul nsw i32 %98, %101
  %103 = sext i32 %102 to i64
  %104 = getelementptr inbounds i8, ptr %95, i64 %103
  %105 = load ptr, ptr %9, align 8, !tbaa !24
  %106 = getelementptr inbounds nuw %struct.TextureDSPThreadContext, ptr %105, i32 0, i32 1
  %107 = load i64, ptr %106, align 8, !tbaa !49
  %108 = load ptr, ptr %19, align 8, !tbaa !13
  %109 = load i32, ptr %13, align 4, !tbaa !17
  %110 = load ptr, ptr %9, align 8, !tbaa !24
  %111 = getelementptr inbounds nuw %struct.TextureDSPThreadContext, ptr %110, i32 0, i32 6
  %112 = load i32, ptr %111, align 4, !tbaa !52
  %113 = mul nsw i32 %109, %112
  %114 = sext i32 %113 to i64
  %115 = getelementptr inbounds i8, ptr %108, i64 %114
  %116 = call i32 %94(ptr noundef %104, i64 noundef %107, ptr noundef %115)
  br label %117

117:                                              ; preds = %91
  %118 = load i32, ptr %13, align 4, !tbaa !17
  %119 = add nsw i32 %118, 1
  store i32 %119, ptr %13, align 4, !tbaa !17
  br label %87, !llvm.loop !53

120:                                              ; preds = %87
  call void @llvm.lifetime.end.p0(i64 4, ptr %20) #7
  call void @llvm.lifetime.end.p0(i64 8, ptr %19) #7
  br label %121

121:                                              ; preds = %120
  %122 = load i32, ptr %14, align 4, !tbaa !17
  %123 = add nsw i32 %122, 1
  store i32 %123, ptr %14, align 4, !tbaa !17
  br label %68, !llvm.loop !54

124:                                              ; preds = %68
  call void @llvm.lifetime.end.p0(i64 4, ptr %18) #7
  call void @llvm.lifetime.end.p0(i64 4, ptr %17) #7
  call void @llvm.lifetime.end.p0(i64 4, ptr %16) #7
  call void @llvm.lifetime.end.p0(i64 4, ptr %15) #7
  call void @llvm.lifetime.end.p0(i64 4, ptr %14) #7
  call void @llvm.lifetime.end.p0(i64 4, ptr %13) #7
  call void @llvm.lifetime.end.p0(i64 4, ptr %12) #7
  call void @llvm.lifetime.end.p0(i64 4, ptr %11) #7
  call void @llvm.lifetime.end.p0(i64 8, ptr %10) #7
  call void @llvm.lifetime.end.p0(i64 8, ptr %9) #7
  ret i32 0
}