; Function Attrs: nounwind uwtable
define internal noundef i32 @exec_func(ptr readnone captures(none) %0, ptr noundef readonly captures(none) %1, i32 noundef %2, i32 %3) #2 {
  %5 = getelementptr inbounds nuw i8, ptr %1, i64 24
  %6 = load ptr, ptr %5, align 8, !tbaa !11
  %7 = getelementptr inbounds nuw i8, ptr %1, i64 16
  %8 = load i32, ptr %7, align 8, !tbaa !37
  %9 = sdiv i32 %8, 4
  %10 = getelementptr inbounds nuw i8, ptr %1, i64 20
  %11 = load i32, ptr %10, align 4, !tbaa !38
  %12 = sdiv i32 %11, 4
  %13 = getelementptr inbounds nuw i8, ptr %1, i64 40
  %14 = load i32, ptr %13, align 8, !tbaa !35
  %15 = sdiv i32 %12, %14
  %16 = srem i32 %12, %14
  %17 = mul nsw i32 %15, %2
  %18 = tail call i32 @llvm.smin.i32(i32 %2, i32 %16)
  %19 = add nsw i32 %18, %17
  %20 = add nsw i32 %19, %15
  %21 = icmp slt i32 %2, %16
  %22 = zext i1 %21 to i32
  %spec.select = add nsw i32 %20, %22
  %23 = icmp slt i32 %19, %spec.select
  br i1 %23, label %.lr.ph45, label %._crit_edge46

.lr.ph45:                                         ; preds = %4
  %24 = getelementptr inbounds nuw i8, ptr %1, i64 8
  %25 = icmp sgt i32 %8, 3
  %26 = getelementptr inbounds nuw i8, ptr %1, i64 48
  %27 = getelementptr inbounds nuw i8, ptr %1, i64 32
  %28 = getelementptr inbounds nuw i8, ptr %1, i64 36
  br i1 %25, label %.lr.ph.us.preheader, label %._crit_edge46

.lr.ph.us.preheader:                              ; preds = %.lr.ph45
  %29 = tail call i32 @llvm.smin.i32(i32 %16, i32 %2)
  %smin = sext i32 %29 to i64
  %30 = sext i32 %17 to i64
  %31 = add nsw i64 %smin, %30
  %32 = add i32 %2, 1
  %33 = mul i32 %15, %32
  %34 = add i32 %33, %22
  %35 = add i32 %34, %29
  br label %.lr.ph.us

.lr.ph.us:                                        ; preds = %.lr.ph.us.preheader, %._crit_edge.us
  %indvars.iv = phi i64 [ %31, %.lr.ph.us.preheader ], [ %indvars.iv.next, %._crit_edge.us ]
  %36 = load ptr, ptr %1, align 8, !tbaa !11
  %37 = load i64, ptr %24, align 8, !tbaa !39
  %38 = shl nsw i64 %indvars.iv, 2
  %39 = mul i64 %38, %37
  %40 = getelementptr inbounds i8, ptr %36, i64 %39
  %41 = trunc i64 %indvars.iv to i32
  %42 = mul i32 %9, %41
  br label %43

43:                                               ; preds = %.lr.ph.us, %43
  %.042.us = phi i32 [ 0, %.lr.ph.us ], [ %56, %43 ]
  %44 = load ptr, ptr %26, align 8, !tbaa !40
  %45 = add nsw i32 %.042.us, %42
  %46 = load i32, ptr %27, align 8, !tbaa !41
  %47 = mul nsw i32 %46, %45
  %48 = sext i32 %47 to i64
  %49 = getelementptr inbounds i8, ptr %6, i64 %48
  %50 = load i64, ptr %24, align 8, !tbaa !39
  %51 = load i32, ptr %28, align 4, !tbaa !42
  %52 = mul nsw i32 %51, %.042.us
  %53 = sext i32 %52 to i64
  %54 = getelementptr inbounds i8, ptr %40, i64 %53
  %55 = tail call i32 %44(ptr noundef %49, i64 noundef %50, ptr noundef %54) #7
  %56 = add nuw nsw i32 %.042.us, 1
  %exitcond.not = icmp eq i32 %56, %9
  br i1 %exitcond.not, label %._crit_edge.us, label %43, !llvm.loop !43

._crit_edge.us:                                   ; preds = %43
  %indvars.iv.next = add nsw i64 %indvars.iv, 1
  %lftr.wideiv = trunc i64 %indvars.iv.next to i32
  %exitcond48.not = icmp eq i32 %35, %lftr.wideiv
  br i1 %exitcond48.not, label %._crit_edge46, label %.lr.ph.us, !llvm.loop !44

._crit_edge46:                                    ; preds = %._crit_edge.us, %.lr.ph45, %4
  ret i32 0
}